Certificate:
    Data:
        Version: 3 (0x2)
        Serial Number: 2 (0x2)
    Signature Algorithm: sha1WithRSAEncryption
        Issuer: C=AU, ST=Some-State, O=Internet Widgits Pty Ltd, CN=CA
        Validity
            Not Before: Apr  6 11:33:26 2021 GMT
            Not After : Apr  6 11:33:26 2022 GMT
        Subject: C=AU, ST=Some-State, O=Internet Widgits Pty Ltd, CN=user2
        Subject Public Key Info:
            Public Key Algorithm: rsaEncryption
                Public-Key: (2048 bit)
                Modulus:
                    00:cc:6e:e8:45:2f:36:5b:f0:fb:6a:ec:0e:1f:1f:
                    11:ad:be:7c:75:a4:e6:3f:8a:da:bf:b3:62:09:4c:
                    ad:73:69:ec:21:c0:9f:4e:e2:30:3d:a4:a4:d6:1a:
                    41:23:cf:aa:37:01:5e:d7:2a:20:62:4b:d5:97:11:
                    52:92:0f:45:7f:31:03:90:34:d7:1a:1a:03:52:1d:
                    b9:bd:88:78:30:83:a9:30:c6:85:f9:71:8d:18:0b:
                    b7:8e:6c:e9:1b:13:65:47:9f:e3:ff:f1:d9:0c:10:
                    cd:de:5d:fe:03:0a:a5:78:68:ab:59:60:ab:09:fc:
                    c9:8d:8c:c8:a2:81:96:81:52:e9:57:82:8c:05:53:
                    97:78:d1:7b:f7:fa:be:bf:07:f2:d1:69:fb:61:32:
                    17:9f:05:e8:9f:4f:d1:69:73:4b:7e:ef:b3:1e:bb:
                    bb:b4:6e:de:b6:ae:09:35:74:fc:25:56:24:cd:fb:
                    81:82:99:2f:c6:fd:38:ce:97:b5:a0:eb:17:f3:00:
                    88:3a:3e:17:3b:e4:ab:a3:6b:82:d1:eb:d8:9b:b3:
                    ca:e9:c1:0c:69:27:61:0e:ef:af:3c:7c:43:13:cb:
                    c8:f5:88:66:18:6b:5f:21:67:85:27:d4:8c:1f:e0:
                    8a:b0:87:c2:b1:86:75:1f:33:f8:26:48:9a:ee:c1:
                    af:a3
                Exponent: 65537 (0x10001)
        X509v3 extensions:
            X509v3 Basic Constraints: 
                CA:FALSE
            Netscape Comment: 
                OpenSSL Generated Certificate
            X509v3 Subject Key Identifier: 
                FD:E7:BC:46:1B:47:10:03:59:8E:04:FB:06:87:45:C6:03:33:29:E2
            X509v3 Authority Key Identifier: 
                keyid:0E:02:0F:0A:80:1F:F0:50:11:99:73:7D:A4:F4:8C:49:03:B8:EA:F9

    Signature Algorithm: sha1WithRSAEncryption
         46:05:0d:e8:ee:0a:95:52:24:6b:e4:a0:7a:1c:b3:80:f8:d8:
         e0:3a:12:9d:03:52:55:6e:e4:2b:c8:bc:d8:22:26:3e:17:65:
         80:f5:f4:93:ce:17:4b:90:2c:a4:0f:73:b8:5c:ec:7b:4c:6d:
         83:ea:1c:63:91:88:49:3e:a8:8c:51:ec:37:dd:69:1f:f9:af:
         64:e4:0b:9b:d3:e4:ac:62:41:10:6a:14:f2:c9:03:0a:cd:98:
         98:7e:68:99:19:29:25:45:fb:0d:cf:f3:3d:f9:fa:2c:2c:98:
         4d:27:14:69:5f:ba:e4:4a:bf:ec:0e:7b:a0:67:ec:42:b4:30:
         26:a8:b2:bc:e1:06:37:84:0e:97:b6:e7:6a:b8:06:1b:b2:01:
         79:1c:a0:44:f7:d7:19:e0:7c:b4:52:4b:f7:62:fd:86:44:9a:
         b0:48:82:58:c9:5b:db:6b:17:61:25:42:e7:f5:8d:19:41:72:
         a8:1a:cf:00:70:ea:5a:35:38:9b:f7:16:ec:4a:3f:09:05:05:
         6d:39:72:88:d4:30:2b:95:52:e1:6f:32:65:80:ab:89:48:18:
         50:8f:1a:32:f1:83:f4:d9:35:0a:49:d1:e0:0b:a2:c0:fe:f3:
         ce:a7:29:d9:a3:50:d8:2b:72:9a:37:ec:28:1c:00:e5:ee:d7:
         22:3d:d2:10
-----BEGIN CERTIFICATE-----
MIIDnTCCAoWgAwIBAgIBAjANBgkqhkiG9w0BAQUFADBSMQswCQYDVQQGEwJBVTET
MBEGA1UECAwKU29tZS1TdGF0ZTEhMB8GA1UECgwYSW50ZXJuZXQgV2lkZ2l0cyBQ
dHkgTHRkMQswCQYDVQQDDAJDQTAeFw0yMTA0MDYxMTMzMjZaFw0yMjA0MDYxMTMz
MjZaMFUxCzAJBgNVBAYTAkFVMRMwEQYDVQQIDApTb21lLVN0YXRlMSEwHwYDVQQK
DBhJbnRlcm5ldCBXaWRnaXRzIFB0eSBMdGQxDjAMBgNVBAMMBXVzZXIyMIIBIjAN
BgkqhkiG9w0BAQEFAAOCAQ8AMIIBCgKCAQEAzG7oRS82W/D7auwOHx8Rrb58daTm
P4rav7NiCUytc2nsIcCfTuIwPaSk1hpBI8+qNwFe1yogYkvVlxFSkg9FfzEDkDTX
GhoDUh25vYh4MIOpMMaF+XGNGAu3jmzpGxNlR5/j//HZDBDN3l3+AwqleGirWWCr
CfzJjYzIooGWgVLpV4KMBVOXeNF79/q+vwfy0Wn7YTIXnwXon0/RaXNLfu+zHru7
tG7etq4JNXT8JVYkzfuBgpkvxv04zpe1oOsX8wCIOj4XO+Sro2uC0evYm7PK6cEM
aSdhDu+vPHxDE8vI9YhmGGtfIWeFJ9SMH+CKsIfCsYZ1HzP4Jkia7sGvowIDAQAB
o3sweTAJBgNVHRMEAjAAMCwGCWCGSAGG+EIBDQQfFh1PcGVuU1NMIEdlbmVyYXRl
ZCBDZXJ0aWZpY2F0ZTAdBgNVHQ4EFgQU/ee8RhtHEANZjgT7BodFxgMzKeIwHwYD
VR0jBBgwFoAUDgIPCoAf8FARmXN9pPSMSQO46vkwDQYJKoZIhvcNAQEFBQADggEB
AEYFDejuCpVSJGvkoHocs4D42OA6Ep0DUlVu5CvIvNgiJj4XZYD19JPOF0uQLKQP
c7hc7HtMbYPqHGORiEk+qIxR7DfdaR/5r2TkC5vT5KxiQRBqFPLJAwrNmJh+aJkZ
KSVF+w3P8z35+iwsmE0nFGlfuuRKv+wOe6Bn7EK0MCaosrzhBjeEDpe252q4Bhuy
AXkcoET31xngfLRSS/di/YZEmrBIgljJW9trF2ElQuf1jRlBcqgazwBw6lo1OJv3
FuxKPwkFBW05cojUMCuVUuFvMmWAq4lIGFCPGjLxg/TZNQpJ0eALosD+886nKdmj
UNgrcpo37CgcAOXu1yI90hA=
-----END CERTIFICATE-----
