Certificate:
    Data:
        Version: 3 (0x2)
        Serial Number: 1 (0x1)
    Signature Algorithm: sha1WithRSAEncryption
        Issuer: C=AU, ST=Some-State, O=Internet Widgits Pty Ltd, CN=CA
        Validity
            Not Before: Apr  6 11:31:01 2021 GMT
            Not After : Apr  6 11:31:01 2022 GMT
        Subject: C=AU, ST=Some-State, O=Internet Widgits Pty Ltd, CN=user1
        Subject Public Key Info:
            Public Key Algorithm: rsaEncryption
                Public-Key: (2048 bit)
                Modulus:
                    00:e3:ba:c4:c8:85:59:41:46:a2:9e:23:b9:85:41:
                    93:35:1f:80:ba:dc:23:e5:91:08:57:ac:c7:1c:15:
                    36:64:67:ac:d1:44:ee:1d:a2:95:e2:8f:8b:3b:09:
                    6d:36:a7:c9:30:48:01:38:3c:cb:bd:02:26:c4:10:
                    d4:61:8b:50:28:74:13:33:92:ab:f6:ab:c9:f9:16:
                    34:15:a8:d8:30:f7:8c:ad:3f:55:bf:ec:1b:3e:be:
                    c4:5f:81:c6:86:6b:4b:fc:1f:e4:16:a3:b4:09:d9:
                    9b:6c:2c:33:3c:b9:5e:90:5c:a4:a3:a9:b3:76:4c:
                    06:1b:f7:57:ea:0e:ab:9d:38:41:68:2e:5b:21:dc:
                    f5:2b:c6:23:42:37:8d:a1:27:76:09:d0:38:4c:f2:
                    20:ac:c6:85:20:dd:99:58:72:9b:d1:ca:59:6e:c3:
                    5b:1b:8f:48:a2:5c:06:51:cc:1b:c9:f4:12:d1:cd:
                    fe:9d:68:af:97:a0:33:74:26:40:0e:12:e5:b5:24:
                    53:dc:ad:26:03:8c:20:b2:88:96:4a:03:d1:cb:42:
                    94:10:db:14:d9:08:9a:f4:c6:6e:25:28:43:1f:c2:
                    8b:8f:96:da:48:6f:51:a4:3b:01:03:b6:15:0c:90:
                    3f:32:96:c8:f3:62:4b:98:87:4f:d3:f2:87:a1:29:
                    04:c9
                Exponent: 65537 (0x10001)
        X509v3 extensions:
            X509v3 Basic Constraints: 
                CA:FALSE
            Netscape Comment: 
                OpenSSL Generated Certificate
            X509v3 Subject Key Identifier: 
                44:85:DE:F8:FF:93:15:76:E1:12:A1:C2:A7:9A:0D:DB:A3:2E:DE:DC
            X509v3 Authority Key Identifier: 
                keyid:0E:02:0F:0A:80:1F:F0:50:11:99:73:7D:A4:F4:8C:49:03:B8:EA:F9

    Signature Algorithm: sha1WithRSAEncryption
         79:ff:47:d6:2d:0a:b0:42:e3:20:80:9e:7f:a0:87:3e:16:18:
         ce:35:a8:86:ab:f5:81:74:04:ca:13:5f:6a:bb:b2:6d:d3:ac:
         7c:a6:2c:56:f4:c3:4f:f4:79:b9:2a:df:c8:6c:97:b5:b8:f0:
         4e:2d:f0:7b:d9:4e:d1:37:25:3a:f9:22:5a:66:2a:fe:be:d1:
         71:75:27:4f:8a:27:26:bf:81:40:7b:20:97:69:8d:4a:9d:0a:
         b1:81:2e:26:ab:85:4a:55:e1:3c:8e:1d:8c:f2:0f:f1:8b:22:
         9b:d8:46:bd:fb:61:93:da:3c:2e:a8:c1:67:51:f5:a1:d6:c7:
         f3:6b:19:56:8b:58:94:4d:d3:bb:55:83:da:ea:09:7c:c3:52:
         2c:56:5f:d5:15:2a:59:dd:22:2d:b7:50:44:e8:10:f4:e4:e4:
         b8:68:58:5b:3e:0a:16:6e:fd:43:1d:70:f5:b8:c5:1c:7a:00:
         85:95:11:ec:2c:a7:56:54:48:eb:ed:f5:d4:8f:d9:a8:60:57:
         c6:1f:a1:8f:2e:4f:f8:28:b1:d7:12:56:f7:f4:42:35:af:aa:
         1e:8a:b1:1f:77:7a:32:bf:48:c6:7b:75:45:df:74:b4:30:33:
         a4:76:98:c2:30:e5:95:78:14:81:82:69:7e:98:41:76:08:6d:
         ed:69:18:ec
-----BEGIN CERTIFICATE-----
MIIDnTCCAoWgAwIBAgIBATANBgkqhkiG9w0BAQUFADBSMQswCQYDVQQGEwJBVTET
MBEGA1UECAwKU29tZS1TdGF0ZTEhMB8GA1UECgwYSW50ZXJuZXQgV2lkZ2l0cyBQ
dHkgTHRkMQswCQYDVQQDDAJDQTAeFw0yMTA0MDYxMTMxMDFaFw0yMjA0MDYxMTMx
MDFaMFUxCzAJBgNVBAYTAkFVMRMwEQYDVQQIDApTb21lLVN0YXRlMSEwHwYDVQQK
DBhJbnRlcm5ldCBXaWRnaXRzIFB0eSBMdGQxDjAMBgNVBAMMBXVzZXIxMIIBIjAN
BgkqhkiG9w0BAQEFAAOCAQ8AMIIBCgKCAQEA47rEyIVZQUainiO5hUGTNR+Autwj
5ZEIV6zHHBU2ZGes0UTuHaKV4o+LOwltNqfJMEgBODzLvQImxBDUYYtQKHQTM5Kr
9qvJ+RY0FajYMPeMrT9Vv+wbPr7EX4HGhmtL/B/kFqO0CdmbbCwzPLlekFyko6mz
dkwGG/dX6g6rnThBaC5bIdz1K8YjQjeNoSd2CdA4TPIgrMaFIN2ZWHKb0cpZbsNb
G49IolwGUcwbyfQS0c3+nWivl6AzdCZADhLltSRT3K0mA4wgsoiWSgPRy0KUENsU
2Qia9MZuJShDH8KLj5baSG9RpDsBA7YVDJA/MpbI82JLmIdP0/KHoSkEyQIDAQAB
o3sweTAJBgNVHRMEAjAAMCwGCWCGSAGG+EIBDQQfFh1PcGVuU1NMIEdlbmVyYXRl
ZCBDZXJ0aWZpY2F0ZTAdBgNVHQ4EFgQURIXe+P+TFXbhEqHCp5oN26Mu3twwHwYD
VR0jBBgwFoAUDgIPCoAf8FARmXN9pPSMSQO46vkwDQYJKoZIhvcNAQEFBQADggEB
AHn/R9YtCrBC4yCAnn+ghz4WGM41qIar9YF0BMoTX2q7sm3TrHymLFb0w0/0ebkq
38hsl7W48E4t8HvZTtE3JTr5IlpmKv6+0XF1J0+KJya/gUB7IJdpjUqdCrGBLiar
hUpV4TyOHYzyD/GLIpvYRr37YZPaPC6owWdR9aHWx/NrGVaLWJRN07tVg9rqCXzD
UixWX9UVKlndIi23UEToEPTk5LhoWFs+ChZu/UMdcPW4xRx6AIWVEewsp1ZUSOvt
9dSP2ahgV8YfoY8uT/gosdcSVvf0QjWvqh6KsR93ejK/SMZ7dUXfdLQwM6R2mMIw
5ZV4FIGCaX6YQXYIbe1pGOw=
-----END CERTIFICATE-----
